; Function Attrs: nounwind uwtable
define dso_local i32 @jobacct_storage_g_job_start(ptr noundef %0, ptr noundef %1) local_unnamed_addr #0 {
  %3 = load i32, ptr @plugin_inited, align 4
  %4 = icmp eq i32 %3, 1
  br i1 %4, label %20, label %5

5:                                                ; preds = %2
  %6 = load i16, ptr getelementptr inbounds nuw (i8, ptr @slurm_conf, i64 16), align 8
  %7 = and i16 %6, 32
  %.not = icmp eq i16 %7, 0
  br i1 %.not, label %8, label %20

8:                                                ; preds = %5
  %9 = getelementptr inbounds nuw i8, ptr %1, i64 448
  %10 = load i32, ptr %9, align 8
  %11 = and i32 %10, 33023
  %or.cond = icmp eq i32 %11, 0
  br i1 %or.cond, label %12, label %17

12:                                               ; preds = %8
  %13 = getelementptr inbounds nuw i8, ptr %1, i64 912
  %14 = load i64, ptr %13, align 8
  store i64 0, ptr %13, align 8
  %15 = load ptr, ptr getelementptr inbounds nuw (i8, ptr @ops, i64 496), align 8
  %16 = tail call i32 %15(ptr noundef %0, ptr noundef nonnull %1) #8
  store i64 %14, ptr %13, align 8
  br label %20

17:                                               ; preds = %8
  %18 = load ptr, ptr getelementptr inbounds nuw (i8, ptr @ops, i64 496), align 8
  %19 = tail call i32 %18(ptr noundef %0, ptr noundef nonnull %1) #8
  br label %20

20:                                               ; preds = %5, %2, %17, %12
  %.0 = phi i32 [ %19, %17 ], [ %16, %12 ], [ 0, %2 ], [ 0, %5 ]
  ret i32 %.0
}